; ModuleID = '54/325.c'
source_filename = "54/325.c"
target datalayout = "e-m:e-p270:32:32-p271:32:32-p272:64:64-i64:64-f80:128-n8:16:32:64-S128"
target triple = "x86_64-pc-linux-gnu"

@.str = private unnamed_addr constant [5 x i8] c"%d%d\00", align 1
@.str.1 = private unnamed_addr constant [4 x i8] c"%d\0A\00", align 1

; Function Attrs: noinline nounwind uwtable
define dso_local void @main() #0 {
  %1 = alloca i32, align 4
  %2 = alloca i32, align 4
  %3 = alloca i32, align 4
  %4 = alloca i32, align 4
  %5 = alloca i32, align 4
  %6 = alloca i32, align 4
  %7 = alloca i32, align 4
  store i32 1, i32* %5, align 4
  store i32 0, i32* %7, align 4
  store i32 1, i32* %6, align 4
  %8 = call i32 (i8*, ...) @__isoc99_scanf(i8* getelementptr inbounds ([5 x i8], [5 x i8]* @.str, i64 0, i64 0), i32* %1, i32* %2)
  br label %9

9:                                                ; preds = %13, %0
  %10 = load i32, i32* %6, align 4
  %11 = load i32, i32* %1, align 4
  %12 = icmp sle i32 %10, %11
  br i1 %12, label %13, label %19

13:                                               ; preds = %9
  %14 = load i32, i32* %5, align 4
  %15 = load i32, i32* %1, align 4
  %16 = mul nsw i32 %14, %15
  store i32 %16, i32* %5, align 4
  %17 = load i32, i32* %6, align 4
  %18 = add nsw i32 %17, 1
  store i32 %18, i32* %6, align 4
  br label %9

19:                                               ; preds = %9
  %20 = load i32, i32* %5, align 4
  store i32 %20, i32* %4, align 4
  br label %21

21:                                               ; preds = %59, %19
  %22 = load i32, i32* %4, align 4
  %23 = load i32, i32* %1, align 4
  %24 = load i32, i32* %2, align 4
  %25 = add nsw i32 %23, %24
  %26 = icmp sge i32 %22, %25
  br i1 %26, label %27, label %62

27:                                               ; preds = %21
  %28 = load i32, i32* %4, align 4
  store i32 %28, i32* %3, align 4
  store i32 0, i32* %7, align 4
  br label %29

29:                                               ; preds = %48, %27
  %30 = load i32, i32* %7, align 4
  %31 = load i32, i32* %1, align 4
  %32 = icmp sle i32 %30, %31
  br i1 %32, label %33, label %51

33:                                               ; preds = %29
  %34 = load i32, i32* %2, align 4
  %35 = load i32, i32* %3, align 4
  %36 = sub nsw i32 %35, %34
  store i32 %36, i32* %3, align 4
  %37 = load i32, i32* %3, align 4
  %38 = load i32, i32* %1, align 4
  %39 = srem i32 %37, %38
  %40 = icmp ne i32 %39, 0
  br i1 %40, label %41, label %42

41:                                               ; preds = %33
  br label %51

42:                                               ; preds = %33
  %43 = load i32, i32* %3, align 4
  %44 = load i32, i32* %1, align 4
  %45 = sdiv i32 %43, %44
  %46 = load i32, i32* %3, align 4
  %47 = sub nsw i32 %46, %45
  store i32 %47, i32* %3, align 4
  br label %48

48:                                               ; preds = %42
  %49 = load i32, i32* %7, align 4
  %50 = add nsw i32 %49, 1
  store i32 %50, i32* %7, align 4
  br label %29

51:                                               ; preds = %41, %29
  %52 = load i32, i32* %7, align 4
  %53 = load i32, i32* %1, align 4
  %54 = icmp eq i32 %52, %53
  br i1 %54, label %55, label %58

55:                                               ; preds = %51
  %56 = load i32, i32* %4, align 4
  %57 = call i32 (i8*, ...) @printf(i8* getelementptr inbounds ([4 x i8], [4 x i8]* @.str.1, i64 0, i64 0), i32 %56)
  br label %58

58:                                               ; preds = %55, %51
  br label %59

59:                                               ; preds = %58
  %60 = load i32, i32* %4, align 4
  %61 = add nsw i32 %60, -1
  store i32 %61, i32* %4, align 4
  br label %21

62:                                               ; preds = %21
  ret void
}

declare dso_local i32 @__isoc99_scanf(i8*, ...) #1

declare dso_local i32 @printf(i8*, ...) #1


!llvm.module.flags = !{!0}
!llvm.ident = !{!1}

!0 = !{i32 1, !"wchar_size", i32 4}
!1 = !{!"clang version 10.0.0-4ubuntu1 "}
